target datalayout = "e-m:e-p270:32:32-p271:32:32-p272:64:64-i64:64-i128:128-f80:128-n8:16:32:64-S128"
target triple = "x86_64-pc-linux-gnu"

; Function Attrs: mustprogress uwtable
define dso_local noundef zeroext i1 @_ZN7VString9wildmatchEPKcS1_(ptr noundef %0, ptr noundef %1) #5 align 2 {
  %3 = alloca i1, align 1
  %4 = alloca ptr, align 8
  %5 = alloca ptr, align 8
  store ptr %0, ptr %4, align 8, !tbaa !9
  store ptr %1, ptr %5, align 8, !tbaa !9
  br label %6

6:                                                ; preds = %52, %2
  %7 = load ptr, ptr %5, align 8, !tbaa !9
  %8 = load i8, ptr %7, align 1, !tbaa !11
  %9 = icmp ne i8 %8, 0
  br i1 %9, label %10, label %57

10:                                               ; preds = %6
  %11 = load ptr, ptr %5, align 8, !tbaa !9
  %12 = load i8, ptr %11, align 1, !tbaa !11
  %13 = sext i8 %12 to i32
  %14 = icmp ne i32 %13, 42
  br i1 %14, label %15, label %30

15:                                               ; preds = %10
  %16 = load ptr, ptr %4, align 8, !tbaa !9
  %17 = load i8, ptr %16, align 1, !tbaa !11
  %18 = sext i8 %17 to i32
  %19 = load ptr, ptr %5, align 8, !tbaa !9
  %20 = load i8, ptr %19, align 1, !tbaa !11
  %21 = sext i8 %20 to i32
  %22 = icmp ne i32 %18, %21
  br i1 %22, label %23, label %29

23:                                               ; preds = %15
  %24 = load ptr, ptr %5, align 8, !tbaa !9
  %25 = load i8, ptr %24, align 1, !tbaa !11
  %26 = sext i8 %25 to i32
  %27 = icmp ne i32 %26, 63
  br i1 %27, label %28, label %29

28:                                               ; preds = %23
  store i1 false, ptr %3, align 1
  br label %62

29:                                               ; preds = %23, %15
  br label %51

30:                                               ; preds = %10
  %31 = load ptr, ptr %5, align 8, !tbaa !9
  %32 = getelementptr inbounds nuw i8, ptr %31, i32 1
  store ptr %32, ptr %5, align 8, !tbaa !9
  %33 = load i8, ptr %32, align 1, !tbaa !11
  %34 = icmp ne i8 %33, 0
  br i1 %34, label %36, label %35

35:                                               ; preds = %30
  store i1 true, ptr %3, align 1
  br label %62

36:                                               ; preds = %30
  br label %37

37:                                               ; preds = %49, %36
  %38 = load ptr, ptr %4, align 8, !tbaa !9
  %39 = load ptr, ptr %5, align 8, !tbaa !9
  %40 = call noundef zeroext i1 @_ZN7VString10wildmatchiEPKcS1_(ptr noundef %38, ptr noundef %39)
  %41 = xor i1 %40, true
  br i1 %41, label %42, label %50

42:                                               ; preds = %37
  %43 = load ptr, ptr %4, align 8, !tbaa !9
  %44 = getelementptr inbounds nuw i8, ptr %43, i32 1
  store ptr %44, ptr %4, align 8, !tbaa !9
  %45 = load i8, ptr %44, align 1, !tbaa !11
  %46 = sext i8 %45 to i32
  %47 = icmp eq i32 %46, 0
  br i1 %47, label %48, label %49

48:                                               ; preds = %42
  store i1 false, ptr %3, align 1
  br label %62

49:                                               ; preds = %42
  br label %37, !llvm.loop !15

50:                                               ; preds = %37
  store i1 true, ptr %3, align 1
  br label %62

51:                                               ; preds = %29
  br label %52

52:                                               ; preds = %51
  %53 = load ptr, ptr %4, align 8, !tbaa !9
  %54 = getelementptr inbounds nuw i8, ptr %53, i32 1
  store ptr %54, ptr %4, align 8, !tbaa !9
  %55 = load ptr, ptr %5, align 8, !tbaa !9
  %56 = getelementptr inbounds nuw i8, ptr %55, i32 1
  store ptr %56, ptr %5, align 8, !tbaa !9
  br label %6, !llvm.loop !16

57:                                               ; preds = %6
  %58 = load ptr, ptr %4, align 8, !tbaa !9
  %59 = load i8, ptr %58, align 1, !tbaa !11
  %60 = sext i8 %59 to i32
  %61 = icmp eq i32 %60, 0
  store i1 %61, ptr %3, align 1
  br label %62

62:                                               ; preds = %57, %50, %48, %35, %28
  %63 = load i1, ptr %3, align 1
  ret i1 %63
}

; Function Attrs: mustprogress uwtable
define dso_local noundef zeroext i1 @_ZN7VString10wildmatchiEPKcS1_(ptr noundef %0, ptr noundef %1) #5 align 2 {
  %3 = alloca i1, align 1
  %4 = alloca ptr, align 8
  %5 = alloca ptr, align 8
  store ptr %0, ptr %4, align 8, !tbaa !9
  store ptr %1, ptr %5, align 8, !tbaa !9
  br label %6

6:                                                ; preds = %52, %2
  %7 = load ptr, ptr %5, align 8, !tbaa !9
  %8 = load i8, ptr %7, align 1, !tbaa !11
  %9 = icmp ne i8 %8, 0
  br i1 %9, label %10, label %57

10:                                               ; preds = %6
  %11 = load ptr, ptr %5, align 8, !tbaa !9
  %12 = load i8, ptr %11, align 1, !tbaa !11
  %13 = sext i8 %12 to i32
  %14 = icmp ne i32 %13, 42
  br i1 %14, label %15, label %30

15:                                               ; preds = %10
  %16 = load ptr, ptr %4, align 8, !tbaa !9
  %17 = load i8, ptr %16, align 1, !tbaa !11
  %18 = sext i8 %17 to i32
  %19 = load ptr, ptr %5, align 8, !tbaa !9
  %20 = load i8, ptr %19, align 1, !tbaa !11
  %21 = sext i8 %20 to i32
  %22 = icmp ne i32 %18, %21
  br i1 %22, label %23, label %29

23:                                               ; preds = %15
  %24 = load ptr, ptr %5, align 8, !tbaa !9
  %25 = load i8, ptr %24, align 1, !tbaa !11
  %26 = sext i8 %25 to i32
  %27 = icmp ne i32 %26, 63
  br i1 %27, label %28, label %29

28:                                               ; preds = %23
  store i1 false, ptr %3, align 1
  br label %62

29:                                               ; preds = %23, %15
  br label %51

30:                                               ; preds = %10
  %31 = load ptr, ptr %5, align 8, !tbaa !9
  %32 = getelementptr inbounds nuw i8, ptr %31, i32 1
  store ptr %32, ptr %5, align 8, !tbaa !9
  %33 = load i8, ptr %32, align 1, !tbaa !11
  %34 = icmp ne i8 %33, 0
  br i1 %34, label %36, label %35

35:                                               ; preds = %30
  store i1 true, ptr %3, align 1
  br label %62

36:                                               ; preds = %30
  br label %37

37:                                               ; preds = %49, %36
  %38 = load ptr, ptr %4, align 8, !tbaa !9
  %39 = load ptr, ptr %5, align 8, !tbaa !9
  %40 = call noundef zeroext i1 @_ZN7VString9wildmatchEPKcS1_(ptr noundef %38, ptr noundef %39)
  %41 = xor i1 %40, true
  br i1 %41, label %42, label %50

42:                                               ; preds = %37
  %43 = load ptr, ptr %4, align 8, !tbaa !9
  %44 = getelementptr inbounds nuw i8, ptr %43, i32 1
  store ptr %44, ptr %4, align 8, !tbaa !9
  %45 = load i8, ptr %44, align 1, !tbaa !11
  %46 = sext i8 %45 to i32
  %47 = icmp eq i32 %46, 0
  br i1 %47, label %48, label %49

48:                                               ; preds = %42
  store i1 false, ptr %3, align 1
  br label %62

49:                                               ; preds = %42
  br label %37, !llvm.loop !12

50:                                               ; preds = %37
  store i1 true, ptr %3, align 1
  br label %62

51:                                               ; preds = %29
  br label %52

52:                                               ; preds = %51
  %53 = load ptr, ptr %4, align 8, !tbaa !9
  %54 = getelementptr inbounds nuw i8, ptr %53, i32 1
  store ptr %54, ptr %4, align 8, !tbaa !9
  %55 = load ptr, ptr %5, align 8, !tbaa !9
  %56 = getelementptr inbounds nuw i8, ptr %55, i32 1
  store ptr %56, ptr %5, align 8, !tbaa !9
  br label %6, !llvm.loop !14

57:                                               ; preds = %6
  %58 = load ptr, ptr %4, align 8, !tbaa !9
  %59 = load i8, ptr %58, align 1, !tbaa !11
  %60 = sext i8 %59 to i32
  %61 = icmp eq i32 %60, 0
  store i1 %61, ptr %3, align 1
  br label %62

62:                                               ; preds = %57, %50, %48, %35, %28
  %63 = load i1, ptr %3, align 1
  ret i1 %63
}