; Function Attrs: mustprogress nofree nosync nounwind willreturn memory(argmem: read) uwtable
define dso_local noundef zeroext i1 @_ZN7VString10wildmatchiEPKcS1_(ptr noundef readonly captures(none) %0, ptr noundef readonly captures(none) %1) #4 align 2 {
  br label %3

3:                                                ; preds = %30, %2
  %.013 = phi ptr [ %0, %2 ], [ %31, %30 ]
  %.0 = phi ptr [ %1, %2 ], [ %32, %30 ]
  %4 = load i8, ptr %.0, align 1, !tbaa !13
  switch i8 %4, label %5 [
    i8 0, label %33
    i8 42, label %7
  ]

5:                                                ; preds = %3
  %6 = load i8, ptr %.013, align 1, !tbaa !13
  %.not19 = icmp eq i8 %6, %4
  %.not20 = icmp eq i8 %4, 63
  %or.cond = or i1 %.not20, %.not19
  br i1 %or.cond, label %30, label %_ZN7VString9wildmatchEPKcS1_.exit.thread

7:                                                ; preds = %3
  %8 = getelementptr inbounds nuw i8, ptr %.0, i64 1
  %9 = load i8, ptr %8, align 1, !tbaa !13
  %.not18 = icmp eq i8 %9, 0
  br i1 %.not18, label %_ZN7VString9wildmatchEPKcS1_.exit.thread, label %.preheader26

.preheader26:                                     ; preds = %7, %_ZN7VString9wildmatchEPKcS1_.exit.thread23
  %.1 = phi ptr [ %27, %_ZN7VString9wildmatchEPKcS1_.exit.thread23 ], [ %.013, %7 ]
  br label %10

10:                                               ; preds = %22, %.preheader26
  %.013.i = phi ptr [ %.1, %.preheader26 ], [ %23, %22 ]
  %.0.i = phi ptr [ %8, %.preheader26 ], [ %24, %22 ]
  %11 = load i8, ptr %.0.i, align 1, !tbaa !13
  switch i8 %11, label %12 [
    i8 0, label %_ZN7VString9wildmatchEPKcS1_.exit
    i8 42, label %14
  ]

12:                                               ; preds = %10
  %13 = load i8, ptr %.013.i, align 1, !tbaa !13
  %.not19.i = icmp eq i8 %13, %11
  %.not20.i = icmp eq i8 %11, 63
  %or.cond.i = or i1 %.not20.i, %.not19.i
  br i1 %or.cond.i, label %22, label %_ZN7VString9wildmatchEPKcS1_.exit.thread23

14:                                               ; preds = %10
  %15 = getelementptr inbounds nuw i8, ptr %.0.i, i64 1
  %16 = load i8, ptr %15, align 1, !tbaa !13
  %.not18.i = icmp eq i8 %16, 0
  br i1 %.not18.i, label %_ZN7VString9wildmatchEPKcS1_.exit.thread, label %.preheader

.preheader:                                       ; preds = %14, %18
  %.1.i = phi ptr [ %19, %18 ], [ %.013.i, %14 ]
  %17 = tail call noundef zeroext i1 @_ZN7VString10wildmatchiEPKcS1_(ptr noundef %.1.i, ptr noundef nonnull %15)
  br i1 %17, label %_ZN7VString9wildmatchEPKcS1_.exit.thread, label %18

18:                                               ; preds = %.preheader
  %19 = getelementptr inbounds nuw i8, ptr %.1.i, i64 1
  %20 = load i8, ptr %19, align 1, !tbaa !13
  %21 = icmp eq i8 %20, 0
  br i1 %21, label %_ZN7VString9wildmatchEPKcS1_.exit.thread23, label %.preheader, !llvm.loop !14

22:                                               ; preds = %12
  %23 = getelementptr inbounds nuw i8, ptr %.013.i, i64 1
  %24 = getelementptr inbounds nuw i8, ptr %.0.i, i64 1
  br label %10, !llvm.loop !16

_ZN7VString9wildmatchEPKcS1_.exit:                ; preds = %10
  %25 = load i8, ptr %.013.i, align 1, !tbaa !13
  %26 = icmp eq i8 %25, 0
  br i1 %26, label %_ZN7VString9wildmatchEPKcS1_.exit.thread, label %_ZN7VString9wildmatchEPKcS1_.exit.thread23

_ZN7VString9wildmatchEPKcS1_.exit.thread23:       ; preds = %12, %18, %_ZN7VString9wildmatchEPKcS1_.exit
  %27 = getelementptr inbounds nuw i8, ptr %.1, i64 1
  %28 = load i8, ptr %27, align 1, !tbaa !13
  %29 = icmp eq i8 %28, 0
  br i1 %29, label %_ZN7VString9wildmatchEPKcS1_.exit.thread, label %.preheader26, !llvm.loop !17

30:                                               ; preds = %5
  %31 = getelementptr inbounds nuw i8, ptr %.013, i64 1
  %32 = getelementptr inbounds nuw i8, ptr %.0, i64 1
  br label %3, !llvm.loop !18

33:                                               ; preds = %3
  %34 = load i8, ptr %.013, align 1, !tbaa !13
  %35 = icmp eq i8 %34, 0
  br label %_ZN7VString9wildmatchEPKcS1_.exit.thread

_ZN7VString9wildmatchEPKcS1_.exit.thread:         ; preds = %5, %14, %_ZN7VString9wildmatchEPKcS1_.exit, %_ZN7VString9wildmatchEPKcS1_.exit.thread23, %.preheader, %7, %33
  %.014 = phi i1 [ %35, %33 ], [ true, %7 ], [ true, %.preheader ], [ true, %14 ], [ true, %_ZN7VString9wildmatchEPKcS1_.exit ], [ false, %_ZN7VString9wildmatchEPKcS1_.exit.thread23 ], [ false, %5 ]
  ret i1 %.014
}